target datalayout = "e-m:e-p270:32:32-p271:32:32-p272:64:64-i64:64-i128:128-f80:128-n8:16:32:64-S128"
target triple = "x86_64-pc-linux-gnu"

@_ZN13GCLogPrecious6_linesE = hidden global ptr null, align 8
@_ZN13GCLogPrecious5_tempE = hidden global ptr null, align 8
@_ZN13GCLogPrecious5_lockE = hidden global ptr null, align 8
@.str = private unnamed_addr constant [19 x i8] c"GCLogPrecious Lock\00", align 1

; Function Attrs: mustprogress nounwind uwtable
define linkonce_odr hidden noundef zeroext i1 @_ZltN5Mutex4RankES0_(i32 noundef %0, i32 noundef %1) #1 comdat {
  %3 = alloca i32, align 4
  %4 = alloca i32, align 4
  store i32 %0, ptr %3, align 4
  store i32 %1, ptr %4, align 4
  %5 = load i32, ptr %3, align 4
  %6 = load i32, ptr %4, align 4
  %7 = icmp slt i32 %5, %6
  ret i1 %7
}

; Function Attrs: mustprogress nounwind uwtable
define linkonce_odr hidden noundef zeroext i1 @_ZgtN5Mutex4RankES0_(i32 noundef %0, i32 noundef %1) #1 comdat {
  %3 = alloca i32, align 4
  %4 = alloca i32, align 4
  store i32 %0, ptr %3, align 4
  store i32 %1, ptr %4, align 4
  %5 = load i32, ptr %4, align 4
  %6 = load i32, ptr %3, align 4
  %7 = call noundef zeroext i1 @_ZltN5Mutex4RankES0_(i32 noundef %5, i32 noundef %6)
  ret i1 %7
}

; Function Attrs: mustprogress nounwind uwtable
define linkonce_odr hidden void @_ZN5MutexC2ENS_4RankEPKc(ptr noundef nonnull align 8 dereferenceable(104) %0, i32 noundef %1, ptr noundef %2) unnamed_addr #1 comdat align 2 {
  %4 = alloca ptr, align 8
  %5 = alloca i32, align 4
  %6 = alloca ptr, align 8
  store ptr %0, ptr %4, align 8
  store i32 %1, ptr %5, align 4
  store ptr %2, ptr %6, align 8
  %7 = load ptr, ptr %4, align 8
  %8 = load i32, ptr %5, align 4
  %9 = load ptr, ptr %6, align 8
  %10 = load i32, ptr %5, align 4
  %11 = call noundef zeroext i1 @_ZgtN5Mutex4RankES0_(i32 noundef %10, i32 noundef 21)
  %12 = select i1 %11, i1 false, i1 true
  call void @_ZN5MutexC2ENS_4RankEPKcb(ptr noundef nonnull align 8 dereferenceable(104) %7, i32 noundef %8, ptr noundef %9, i1 noundef zeroext %12)
  ret void
}

; Function Attrs: mustprogress nounwind uwtable
define hidden void @_ZN13GCLogPrecious10initializeEv() #1 align 2 {
  %1 = alloca i64, align 8
  %2 = alloca i8, align 1
  %3 = alloca i64, align 8
  %4 = alloca i64, align 8
  %5 = alloca i8, align 1
  %6 = alloca i64, align 8
  %7 = alloca i8, align 1
  store i64 136, ptr %4, align 8
  store i8 5, ptr %5, align 1
  %8 = load i64, ptr %4, align 8
  %9 = load i8, ptr %5, align 1
  %10 = call noundef ptr @_Z12AllocateHeapm8MEMFLAGSN17AllocFailStrategy13AllocFailEnumE(i64 noundef %8, i8 noundef zeroext %9, i32 noundef 0) #5
  call void @_ZN12stringStreamC1Em(ptr noundef nonnull align 8 dereferenceable(129) %10, i64 noundef 0)
  store ptr %10, ptr @_ZN13GCLogPrecious6_linesE, align 8
  store i64 136, ptr %6, align 8
  store i8 5, ptr %7, align 1
  %11 = load i64, ptr %6, align 8
  %12 = load i8, ptr %7, align 1
  %13 = call noundef ptr @_Z12AllocateHeapm8MEMFLAGSN17AllocFailStrategy13AllocFailEnumE(i64 noundef %11, i8 noundef zeroext %12, i32 noundef 0) #5
  call void @_ZN12stringStreamC1Em(ptr noundef nonnull align 8 dereferenceable(129) %13, i64 noundef 0)
  store ptr %13, ptr @_ZN13GCLogPrecious5_tempE, align 8
  store i64 104, ptr %3, align 8
  %14 = load i64, ptr %3, align 8
  store i64 %14, ptr %1, align 8
  store i8 22, ptr %2, align 1
  %15 = load i64, ptr %1, align 8
  %16 = load i8, ptr %2, align 1
  %17 = call noundef ptr @_Z12AllocateHeapm8MEMFLAGSN17AllocFailStrategy13AllocFailEnumE(i64 noundef %15, i8 noundef zeroext %16, i32 noundef 0) #5
  call void @_ZN5MutexC2ENS_4RankEPKc(ptr noundef nonnull align 8 dereferenceable(104) %17, i32 noundef 0, ptr noundef @.str)
  store ptr %17, ptr @_ZN13GCLogPrecious5_lockE, align 8
  ret void
}