; Function Attrs: mustprogress nounwind uwtable
define hidden void @_ZN13GCLogPrecious10initializeEv() local_unnamed_addr #0 align 2 {
  %1 = tail call noundef ptr @_Z12AllocateHeapm8MEMFLAGSN17AllocFailStrategy13AllocFailEnumE(i64 noundef 136, i8 noundef zeroext 5, i32 noundef 0) #4
  tail call void @_ZN12stringStreamC1Em(ptr noundef nonnull align 8 dereferenceable(129) %1, i64 noundef 0) #4
  store ptr %1, ptr @_ZN13GCLogPrecious6_linesE, align 8
  %2 = tail call noundef ptr @_Z12AllocateHeapm8MEMFLAGSN17AllocFailStrategy13AllocFailEnumE(i64 noundef 136, i8 noundef zeroext 5, i32 noundef 0) #4
  tail call void @_ZN12stringStreamC1Em(ptr noundef nonnull align 8 dereferenceable(129) %2, i64 noundef 0) #4
  store ptr %2, ptr @_ZN13GCLogPrecious5_tempE, align 8
  %3 = tail call noundef ptr @_Z12AllocateHeapm8MEMFLAGSN17AllocFailStrategy13AllocFailEnumE(i64 noundef 104, i8 noundef zeroext 22, i32 noundef 0) #4
  tail call void @_ZN5MutexC2ENS_4RankEPKcb(ptr noundef nonnull align 8 dereferenceable(104) %3, i32 noundef 0, ptr noundef nonnull @.str, i1 noundef zeroext true) #4
  store ptr %3, ptr @_ZN13GCLogPrecious5_lockE, align 8
  ret void
}